target datalayout = "e-m:e-p270:32:32-p271:32:32-p272:64:64-i64:64-i128:128-f80:128-n8:16:32:64-S128"
target triple = "x86_64-pc-linux-gnu"

; Function Attrs: nounwind uwtable
define dso_local i32 @ctx_set_verify_locations(ptr noundef %0, ptr noundef %1, i32 noundef %2, ptr noundef %3, i32 noundef %4, ptr noundef %5, i32 noundef %6) #0 {
  %8 = alloca i32, align 4
  %9 = alloca ptr, align 8
  %10 = alloca ptr, align 8
  %11 = alloca i32, align 4
  %12 = alloca ptr, align 8
  %13 = alloca i32, align 4
  %14 = alloca ptr, align 8
  %15 = alloca i32, align 4
  store ptr %0, ptr %9, align 8, !tbaa !31
  store ptr %1, ptr %10, align 8, !tbaa !9
  store i32 %2, ptr %11, align 4, !tbaa !25
  store ptr %3, ptr %12, align 8, !tbaa !9
  store i32 %4, ptr %13, align 4, !tbaa !25
  store ptr %5, ptr %14, align 8, !tbaa !9
  store i32 %6, ptr %15, align 4, !tbaa !25
  %16 = load ptr, ptr %10, align 8, !tbaa !9
  %17 = icmp eq ptr %16, null
  br i1 %17, label %18, label %49

18:                                               ; preds = %7
  %19 = load ptr, ptr %12, align 8, !tbaa !9
  %20 = icmp eq ptr %19, null
  br i1 %20, label %21, label %49

21:                                               ; preds = %18
  %22 = load ptr, ptr %14, align 8, !tbaa !9
  %23 = icmp eq ptr %22, null
  br i1 %23, label %24, label %49

24:                                               ; preds = %21
  %25 = load i32, ptr %11, align 4, !tbaa !25
  %26 = icmp ne i32 %25, 0
  br i1 %26, label %32, label %27

27:                                               ; preds = %24
  %28 = load ptr, ptr %9, align 8, !tbaa !31
  %29 = call i32 @SSL_CTX_set_default_verify_file(ptr noundef %28)
  %30 = icmp sle i32 %29, 0
  br i1 %30, label %31, label %32

31:                                               ; preds = %27
  store i32 0, ptr %8, align 4
  br label %77

32:                                               ; preds = %27, %24
  %33 = load i32, ptr %13, align 4, !tbaa !25
  %34 = icmp ne i32 %33, 0
  br i1 %34, label %40, label %35

35:                                               ; preds = %32
  %36 = load ptr, ptr %9, align 8, !tbaa !31
  %37 = call i32 @SSL_CTX_set_default_verify_dir(ptr noundef %36)
  %38 = icmp sle i32 %37, 0
  br i1 %38, label %39, label %40

39:                                               ; preds = %35
  store i32 0, ptr %8, align 4
  br label %77

40:                                               ; preds = %35, %32
  %41 = load i32, ptr %15, align 4, !tbaa !25
  %42 = icmp ne i32 %41, 0
  br i1 %42, label %48, label %43

43:                                               ; preds = %40
  %44 = load ptr, ptr %9, align 8, !tbaa !31
  %45 = call i32 @SSL_CTX_set_default_verify_store(ptr noundef %44)
  %46 = icmp sle i32 %45, 0
  br i1 %46, label %47, label %48

47:                                               ; preds = %43
  store i32 0, ptr %8, align 4
  br label %77

48:                                               ; preds = %43, %40
  store i32 1, ptr %8, align 4
  br label %77

49:                                               ; preds = %21, %18, %7
  %50 = load ptr, ptr %10, align 8, !tbaa !9
  %51 = icmp ne ptr %50, null
  br i1 %51, label %52, label %58

52:                                               ; preds = %49
  %53 = load ptr, ptr %9, align 8, !tbaa !31
  %54 = load ptr, ptr %10, align 8, !tbaa !9
  %55 = call i32 @SSL_CTX_load_verify_file(ptr noundef %53, ptr noundef %54)
  %56 = icmp ne i32 %55, 0
  br i1 %56, label %58, label %57

57:                                               ; preds = %52
  store i32 0, ptr %8, align 4
  br label %77

58:                                               ; preds = %52, %49
  %59 = load ptr, ptr %12, align 8, !tbaa !9
  %60 = icmp ne ptr %59, null
  br i1 %60, label %61, label %67

61:                                               ; preds = %58
  %62 = load ptr, ptr %9, align 8, !tbaa !31
  %63 = load ptr, ptr %12, align 8, !tbaa !9
  %64 = call i32 @SSL_CTX_load_verify_dir(ptr noundef %62, ptr noundef %63)
  %65 = icmp ne i32 %64, 0
  br i1 %65, label %67, label %66

66:                                               ; preds = %61
  store i32 0, ptr %8, align 4
  br label %77

67:                                               ; preds = %61, %58
  %68 = load ptr, ptr %14, align 8, !tbaa !9
  %69 = icmp ne ptr %68, null
  br i1 %69, label %70, label %76

70:                                               ; preds = %67
  %71 = load ptr, ptr %9, align 8, !tbaa !31
  %72 = load ptr, ptr %14, align 8, !tbaa !9
  %73 = call i32 @SSL_CTX_load_verify_store(ptr noundef %71, ptr noundef %72)
  %74 = icmp ne i32 %73, 0
  br i1 %74, label %76, label %75

75:                                               ; preds = %70
  store i32 0, ptr %8, align 4
  br label %77

76:                                               ; preds = %70, %67
  store i32 1, ptr %8, align 4
  br label %77

77:                                               ; preds = %76, %75, %66, %57, %48, %47, %39, %31
  %78 = load i32, ptr %8, align 4
  ret i32 %78
}