; Function Attrs: nounwind uwtable
define dso_local range(i32 0, 2) i32 @ctx_set_verify_locations(ptr noundef %0, ptr noundef %1, i32 noundef %2, ptr noundef %3, i32 noundef %4, ptr noundef %5, i32 noundef %6) local_unnamed_addr #0 {
  %8 = icmp eq ptr %1, null
  %9 = icmp eq ptr %3, null
  %or.cond = and i1 %8, %9
  %10 = icmp eq ptr %5, null
  %or.cond3 = and i1 %or.cond, %10
  br i1 %or.cond3, label %11, label %24

11:                                               ; preds = %7
  %.not29 = icmp eq i32 %2, 0
  br i1 %.not29, label %12, label %15

12:                                               ; preds = %11
  %13 = tail call i32 @SSL_CTX_set_default_verify_file(ptr noundef %0) #27
  %14 = icmp slt i32 %13, 1
  br i1 %14, label %34, label %15

15:                                               ; preds = %12, %11
  %.not30 = icmp eq i32 %4, 0
  br i1 %.not30, label %16, label %19

16:                                               ; preds = %15
  %17 = tail call i32 @SSL_CTX_set_default_verify_dir(ptr noundef %0) #27
  %18 = icmp slt i32 %17, 1
  br i1 %18, label %34, label %19

19:                                               ; preds = %16, %15
  %.not31 = icmp eq i32 %6, 0
  br i1 %.not31, label %20, label %23

20:                                               ; preds = %19
  %21 = tail call i32 @SSL_CTX_set_default_verify_store(ptr noundef %0) #27
  %22 = icmp slt i32 %21, 1
  br i1 %22, label %34, label %23

23:                                               ; preds = %20, %19
  br label %34

24:                                               ; preds = %7
  br i1 %8, label %27, label %25

25:                                               ; preds = %24
  %26 = tail call i32 @SSL_CTX_load_verify_file(ptr noundef %0, ptr noundef nonnull %1) #27
  %.not24 = icmp eq i32 %26, 0
  br i1 %.not24, label %34, label %27

27:                                               ; preds = %25, %24
  br i1 %9, label %30, label %28

28:                                               ; preds = %27
  %29 = tail call i32 @SSL_CTX_load_verify_dir(ptr noundef %0, ptr noundef nonnull %3) #27
  %.not26 = icmp eq i32 %29, 0
  br i1 %.not26, label %34, label %30

30:                                               ; preds = %28, %27
  br i1 %10, label %33, label %31

31:                                               ; preds = %30
  %32 = tail call i32 @SSL_CTX_load_verify_store(ptr noundef %0, ptr noundef nonnull %5) #27
  %.not28 = icmp eq i32 %32, 0
  br i1 %.not28, label %34, label %33

33:                                               ; preds = %31, %30
  br label %34

34:                                               ; preds = %31, %28, %25, %20, %16, %12, %33, %23
  %.0 = phi i32 [ 1, %23 ], [ 1, %33 ], [ 0, %12 ], [ 0, %16 ], [ 0, %20 ], [ 0, %25 ], [ 0, %28 ], [ 0, %31 ]
  ret i32 %.0
}